target datalayout = "e-m:e-p270:32:32-p271:32:32-p272:64:64-i64:64-i128:128-f80:128-n8:16:32:64-S128"
target triple = "x86_64-pc-linux-gnu"

%struct.dsa_st = type { i32, i32, %struct.ffc_params_st, ptr, ptr, i32, ptr, %struct.CRYPTO_REF_COUNT, %struct.crypto_ex_data_st, ptr, ptr, ptr, ptr, i64 }
%struct.ffc_params_st = type { ptr, ptr, ptr, ptr, ptr, i64, i32, i32, i32, i32, i32, ptr, ptr, i32 }
%struct.CRYPTO_REF_COUNT = type { i32 }
%struct.crypto_ex_data_st = type { ptr, ptr }

; Function Attrs: nounwind uwtable
define i32 @DSA_security_bits(ptr noundef %0) #0 {
  %2 = alloca i32, align 4
  %3 = alloca ptr, align 8
  store ptr %0, ptr %3, align 8, !tbaa !3
  %4 = load ptr, ptr %3, align 8, !tbaa !3
  %5 = getelementptr inbounds nuw %struct.dsa_st, ptr %4, i32 0, i32 2
  %6 = getelementptr inbounds nuw %struct.ffc_params_st, ptr %5, i32 0, i32 0
  %7 = load ptr, ptr %6, align 8, !tbaa !44
  %8 = icmp ne ptr %7, null
  br i1 %8, label %9, label %27

9:                                                ; preds = %1
  %10 = load ptr, ptr %3, align 8, !tbaa !3
  %11 = getelementptr inbounds nuw %struct.dsa_st, ptr %10, i32 0, i32 2
  %12 = getelementptr inbounds nuw %struct.ffc_params_st, ptr %11, i32 0, i32 1
  %13 = load ptr, ptr %12, align 8, !tbaa !45
  %14 = icmp ne ptr %13, null
  br i1 %14, label %15, label %27

15:                                               ; preds = %9
  %16 = load ptr, ptr %3, align 8, !tbaa !3
  %17 = getelementptr inbounds nuw %struct.dsa_st, ptr %16, i32 0, i32 2
  %18 = getelementptr inbounds nuw %struct.ffc_params_st, ptr %17, i32 0, i32 0
  %19 = load ptr, ptr %18, align 8, !tbaa !44
  %20 = call i32 @BN_num_bits(ptr noundef %19)
  %21 = load ptr, ptr %3, align 8, !tbaa !3
  %22 = getelementptr inbounds nuw %struct.dsa_st, ptr %21, i32 0, i32 2
  %23 = getelementptr inbounds nuw %struct.ffc_params_st, ptr %22, i32 0, i32 1
  %24 = load ptr, ptr %23, align 8, !tbaa !45
  %25 = call i32 @BN_num_bits(ptr noundef %24)
  %26 = call i32 @BN_security_bits(i32 noundef %20, i32 noundef %25)
  store i32 %26, ptr %2, align 4
  br label %28

27:                                               ; preds = %9, %1
  store i32 -1, ptr %2, align 4
  br label %28

28:                                               ; preds = %27, %15
  %29 = load i32, ptr %2, align 4
  ret i32 %29
}