; Function Attrs: nounwind uwtable
define i32 @DSA_security_bits(ptr noundef readonly captures(none) %0) local_unnamed_addr #0 {
  %2 = getelementptr inbounds nuw i8, ptr %0, i64 8
  %3 = load ptr, ptr %2, align 8, !tbaa !31
  %.not = icmp eq ptr %3, null
  br i1 %.not, label %12, label %4

4:                                                ; preds = %1
  %5 = getelementptr inbounds nuw i8, ptr %0, i64 16
  %6 = load ptr, ptr %5, align 8, !tbaa !32
  %.not5 = icmp eq ptr %6, null
  br i1 %.not5, label %12, label %7

7:                                                ; preds = %4
  %8 = tail call i32 @BN_num_bits(ptr noundef nonnull %3) #7
  %9 = load ptr, ptr %5, align 8, !tbaa !32
  %10 = tail call i32 @BN_num_bits(ptr noundef %9) #7
  %11 = tail call i32 @BN_security_bits(i32 noundef %8, i32 noundef %10) #7
  br label %12

12:                                               ; preds = %1, %4, %7
  %.0 = phi i32 [ %11, %7 ], [ -1, %4 ], [ -1, %1 ]
  ret i32 %.0
}